; Function Attrs: mustprogress uwtable
define void @_ZN5dtm_t17start_host_threadEv(ptr noundef nonnull align 8 dereferenceable(928) %0) local_unnamed_addr #0 align 2 {
  %2 = getelementptr inbounds i8, ptr %0, i64 893
  store i8 0, ptr %2, align 1
  %3 = getelementptr inbounds i8, ptr %0, i64 894
  store i8 0, ptr %3, align 2
  %4 = tail call noundef ptr @_ZN9context_t7currentEv()
  %5 = getelementptr inbounds i8, ptr %0, i64 728
  store ptr %4, ptr %5, align 8
  %6 = getelementptr inbounds i8, ptr %0, i64 696
  tail call void @_ZN9context_t4initEPFvPvES0_(ptr noundef nonnull align 8 dereferenceable(32) %6, ptr noundef nonnull @_Z16host_thread_mainPv, ptr noundef nonnull %0)
  tail call void @_ZN9context_t9switch_toEv(ptr noundef nonnull align 8 dereferenceable(32) %6)
  ret void
}